target datalayout = "e-m:e-p270:32:32-p271:32:32-p272:64:64-i64:64-i128:128-f80:128-n8:16:32:64-S128"
target triple = "x86_64-pc-linux-gnu"

%struct.lexbor_avl = type { ptr, ptr }
%struct.lexbor_avl_node = type { i64, i16, ptr, ptr, ptr, ptr }

; Function Attrs: nounwind uwtable
define hidden i32 @lexbor_avl_foreach(ptr noundef %0, ptr noundef %1, ptr noundef %2, ptr noundef %3) #0 {
  %5 = alloca i32, align 4
  %6 = alloca ptr, align 8
  %7 = alloca ptr, align 8
  %8 = alloca ptr, align 8
  %9 = alloca ptr, align 8
  %10 = alloca i32, align 4
  %11 = alloca i32, align 4
  %12 = alloca i8, align 1
  %13 = alloca ptr, align 8
  %14 = alloca ptr, align 8
  %15 = alloca ptr, align 8
  store ptr %0, ptr %6, align 8
  store ptr %1, ptr %7, align 8
  store ptr %2, ptr %8, align 8
  store ptr %3, ptr %9, align 8
  store i32 0, ptr %11, align 4
  store i8 0, ptr %12, align 1
  %16 = load ptr, ptr %7, align 8
  %17 = icmp eq ptr %16, null
  br i1 %17, label %22, label %18

18:                                               ; preds = %4
  %19 = load ptr, ptr %7, align 8
  %20 = load ptr, ptr %19, align 8
  %21 = icmp eq ptr %20, null
  br i1 %21, label %22, label %23

22:                                               ; preds = %18, %4
  store i32 9, ptr %5, align 4
  br label %190

23:                                               ; preds = %18
  %24 = load ptr, ptr %7, align 8
  %25 = load ptr, ptr %24, align 8
  store ptr %25, ptr %13, align 8
  %26 = load ptr, ptr %13, align 8
  store ptr %26, ptr %15, align 8
  br label %27

27:                                               ; preds = %32, %23
  %28 = load ptr, ptr %13, align 8
  %29 = getelementptr inbounds %struct.lexbor_avl_node, ptr %28, i32 0, i32 3
  %30 = load ptr, ptr %29, align 8
  %31 = icmp ne ptr %30, null
  br i1 %31, label %32, label %36

32:                                               ; preds = %27
  %33 = load ptr, ptr %13, align 8
  %34 = getelementptr inbounds %struct.lexbor_avl_node, ptr %33, i32 0, i32 3
  %35 = load ptr, ptr %34, align 8
  store ptr %35, ptr %13, align 8
  br label %27

36:                                               ; preds = %27
  br label %37

37:                                               ; preds = %189, %36
  %38 = load ptr, ptr %13, align 8
  %39 = getelementptr inbounds %struct.lexbor_avl_node, ptr %38, i32 0, i32 5
  %40 = load ptr, ptr %39, align 8
  store ptr %40, ptr %14, align 8
  %41 = load i8, ptr %12, align 1
  %42 = trunc i8 %41 to i1
  br i1 %42, label %149, label %43

43:                                               ; preds = %37
  %44 = load ptr, ptr %13, align 8
  %45 = load ptr, ptr %15, align 8
  %46 = icmp eq ptr %44, %45
  br i1 %46, label %47, label %48

47:                                               ; preds = %43
  store i32 2, ptr %11, align 4
  br label %55

48:                                               ; preds = %43
  %49 = load ptr, ptr %14, align 8
  %50 = getelementptr inbounds %struct.lexbor_avl_node, ptr %49, i32 0, i32 3
  %51 = load ptr, ptr %50, align 8
  %52 = load ptr, ptr %13, align 8
  %53 = icmp eq ptr %51, %52
  %54 = zext i1 %53 to i32
  store i32 %54, ptr %11, align 4
  br label %55

55:                                               ; preds = %48, %47
  %56 = load ptr, ptr %8, align 8
  %57 = load ptr, ptr %6, align 8
  %58 = load ptr, ptr %7, align 8
  %59 = load ptr, ptr %13, align 8
  %60 = load ptr, ptr %9, align 8
  %61 = call i32 %56(ptr noundef %57, ptr noundef %58, ptr noundef %59, ptr noundef %60)
  store i32 %61, ptr %10, align 4
  %62 = load i32, ptr %10, align 4
  %63 = icmp ne i32 %62, 0
  br i1 %63, label %64, label %66

64:                                               ; preds = %55
  %65 = load i32, ptr %10, align 4
  store i32 %65, ptr %5, align 4
  br label %190

66:                                               ; preds = %55
  %67 = load i32, ptr %11, align 4
  %68 = icmp eq i32 %67, 2
  br i1 %68, label %69, label %93

69:                                               ; preds = %66
  %70 = load ptr, ptr %7, align 8
  %71 = load ptr, ptr %70, align 8
  %72 = load ptr, ptr %15, align 8
  %73 = icmp ne ptr %71, %72
  br i1 %73, label %74, label %92

74:                                               ; preds = %69
  %75 = load ptr, ptr %7, align 8
  %76 = load ptr, ptr %75, align 8
  store ptr %76, ptr %15, align 8
  %77 = load ptr, ptr %15, align 8
  %78 = icmp eq ptr %77, null
  br i1 %78, label %79, label %80

79:                                               ; preds = %74
  store i32 0, ptr %5, align 4
  br label %190

80:                                               ; preds = %74
  %81 = load ptr, ptr %6, align 8
  %82 = getelementptr inbounds %struct.lexbor_avl, ptr %81, i32 0, i32 1
  %83 = load ptr, ptr %82, align 8
  %84 = load ptr, ptr %15, align 8
  %85 = icmp eq ptr %83, %84
  br i1 %85, label %86, label %88

86:                                               ; preds = %80
  %87 = load ptr, ptr %15, align 8
  store ptr %87, ptr %13, align 8
  br label %90

88:                                               ; preds = %80
  %89 = load ptr, ptr %15, align 8
  store ptr %89, ptr %13, align 8
  br label %189

90:                                               ; preds = %86
  br label %91

91:                                               ; preds = %90
  br label %92

92:                                               ; preds = %91, %69
  br label %148

93:                                               ; preds = %66
  %94 = load ptr, ptr %14, align 8
  %95 = getelementptr inbounds %struct.lexbor_avl_node, ptr %94, i32 0, i32 3
  %96 = load ptr, ptr %95, align 8
  %97 = load ptr, ptr %13, align 8
  %98 = icmp ne ptr %96, %97
  br i1 %98, label %99, label %147

99:                                               ; preds = %93
  %100 = load ptr, ptr %14, align 8
  %101 = getelementptr inbounds %struct.lexbor_avl_node, ptr %100, i32 0, i32 4
  %102 = load ptr, ptr %101, align 8
  %103 = load ptr, ptr %13, align 8
  %104 = icmp ne ptr %102, %103
  br i1 %104, label %105, label %147

105:                                              ; preds = %99
  %106 = load i32, ptr %11, align 4
  %107 = icmp ne i32 %106, 0
  br i1 %107, label %108, label %127

108:                                              ; preds = %105
  %109 = load ptr, ptr %14, align 8
  %110 = getelementptr inbounds %struct.lexbor_avl_node, ptr %109, i32 0, i32 3
  %111 = load ptr, ptr %110, align 8
  %112 = icmp ne ptr %111, null
  br i1 %112, label %113, label %124

113:                                              ; preds = %108
  %114 = load ptr, ptr %14, align 8
  %115 = getelementptr inbounds %struct.lexbor_avl_node, ptr %114, i32 0, i32 3
  %116 = load ptr, ptr %115, align 8
  %117 = getelementptr inbounds %struct.lexbor_avl_node, ptr %116, i32 0, i32 4
  %118 = load ptr, ptr %117, align 8
  %119 = icmp ne ptr %118, null
  br i1 %119, label %120, label %124

120:                                              ; preds = %113
  %121 = load ptr, ptr %14, align 8
  %122 = getelementptr inbounds %struct.lexbor_avl_node, ptr %121, i32 0, i32 3
  %123 = load ptr, ptr %122, align 8
  store ptr %123, ptr %13, align 8
  br label %126

124:                                              ; preds = %113, %108
  %125 = load ptr, ptr %14, align 8
  store ptr %125, ptr %13, align 8
  br label %189

126:                                              ; preds = %120
  br label %146

127:                                              ; preds = %105
  %128 = load ptr, ptr %14, align 8
  %129 = getelementptr inbounds %struct.lexbor_avl_node, ptr %128, i32 0, i32 4
  %130 = load ptr, ptr %129, align 8
  %131 = icmp ne ptr %130, null
  br i1 %131, label %132, label %143

132:                                              ; preds = %127
  %133 = load ptr, ptr %14, align 8
  %134 = getelementptr inbounds %struct.lexbor_avl_node, ptr %133, i32 0, i32 4
  %135 = load ptr, ptr %134, align 8
  store ptr %135, ptr %13, align 8
  %136 = load ptr, ptr %13, align 8
  %137 = load ptr, ptr %6, align 8
  %138 = getelementptr inbounds %struct.lexbor_avl, ptr %137, i32 0, i32 1
  %139 = load ptr, ptr %138, align 8
  %140 = icmp ne ptr %136, %139
  br i1 %140, label %141, label %142

141:                                              ; preds = %132
  br label %189

142:                                              ; preds = %132
  br label %145

143:                                              ; preds = %127
  %144 = load ptr, ptr %14, align 8
  store ptr %144, ptr %13, align 8
  br label %145

145:                                              ; preds = %143, %142
  br label %146

146:                                              ; preds = %145, %126
  br label %147

147:                                              ; preds = %146, %99, %93
  br label %148

148:                                              ; preds = %147, %92
  br label %149

149:                                              ; preds = %148, %37
  %150 = load ptr, ptr %13, align 8
  %151 = getelementptr inbounds %struct.lexbor_avl_node, ptr %150, i32 0, i32 4
  %152 = load ptr, ptr %151, align 8
  %153 = icmp ne ptr %152, null
  br i1 %153, label %154, label %171

154:                                              ; preds = %149
  %155 = load i8, ptr %12, align 1
  %156 = trunc i8 %155 to i1
  br i1 %156, label %171, label %157

157:                                              ; preds = %154
  %158 = load ptr, ptr %13, align 8
  %159 = getelementptr inbounds %struct.lexbor_avl_node, ptr %158, i32 0, i32 4
  %160 = load ptr, ptr %159, align 8
  store ptr %160, ptr %13, align 8
  br label %161

161:                                              ; preds = %166, %157
  %162 = load ptr, ptr %13, align 8
  %163 = getelementptr inbounds %struct.lexbor_avl_node, ptr %162, i32 0, i32 3
  %164 = load ptr, ptr %163, align 8
  %165 = icmp ne ptr %164, null
  br i1 %165, label %166, label %170

166:                                              ; preds = %161
  %167 = load ptr, ptr %13, align 8
  %168 = getelementptr inbounds %struct.lexbor_avl_node, ptr %167, i32 0, i32 3
  %169 = load ptr, ptr %168, align 8
  store ptr %169, ptr %13, align 8
  br label %161

170:                                              ; preds = %161
  br label %189

171:                                              ; preds = %154, %149
  %172 = load ptr, ptr %14, align 8
  %173 = load ptr, ptr %15, align 8
  %174 = getelementptr inbounds %struct.lexbor_avl_node, ptr %173, i32 0, i32 5
  %175 = load ptr, ptr %174, align 8
  %176 = icmp eq ptr %172, %175
  br i1 %176, label %177, label %178

177:                                              ; preds = %171
  store i32 0, ptr %5, align 4
  br label %190

178:                                              ; preds = %171
  %179 = load ptr, ptr %13, align 8
  %180 = load ptr, ptr %14, align 8
  %181 = getelementptr inbounds %struct.lexbor_avl_node, ptr %180, i32 0, i32 3
  %182 = load ptr, ptr %181, align 8
  %183 = icmp eq ptr %179, %182
  br i1 %183, label %184, label %185

184:                                              ; preds = %178
  store i8 0, ptr %12, align 1
  br label %186

185:                                              ; preds = %178
  store i8 1, ptr %12, align 1
  br label %186

186:                                              ; preds = %185, %184
  br label %187

187:                                              ; preds = %186
  %188 = load ptr, ptr %14, align 8
  store ptr %188, ptr %13, align 8
  br label %189

189:                                              ; preds = %187, %170, %141, %124, %88
  br i1 true, label %37, label %190

190:                                              ; preds = %189, %177, %79, %64, %22
  %191 = load i32, ptr %5, align 4
  ret i32 %191
}