; Function Attrs: nounwind uwtable
define hidden i32 @lexbor_avl_foreach(ptr noundef %0, ptr noundef %1, ptr nocapture noundef readonly %2, ptr noundef %3) local_unnamed_addr #0 {
  %5 = icmp eq ptr %1, null
  br i1 %5, label %.loopexit97, label %6

6:                                                ; preds = %4
  %7 = load ptr, ptr %1, align 8
  %8 = icmp eq ptr %7, null
  br i1 %8, label %.loopexit97, label %.preheader98

.preheader98:                                     ; preds = %6, %.preheader98
  %.053 = phi ptr [ %10, %.preheader98 ], [ %7, %6 ]
  %9 = getelementptr inbounds i8, ptr %.053, i64 24
  %10 = load ptr, ptr %9, align 8
  %.not = icmp eq ptr %10, null
  br i1 %.not, label %.preheader96, label %.preheader98

.preheader96:                                     ; preds = %.preheader98
  %11 = getelementptr inbounds i8, ptr %0, i64 8
  br label %.loopexit.outer

.loopexit.outer:                                  ; preds = %48, %.preheader96
  %.056.ph = phi i8 [ %., %48 ], [ 0, %.preheader96 ]
  %.154.ph = phi ptr [ %13, %48 ], [ %.053, %.preheader96 ]
  %.0.ph = phi ptr [ %.194, %48 ], [ %7, %.preheader96 ]
  %.not70.not = icmp eq i8 %.056.ph, 0
  br label %.loopexit.outer99

.loopexit.outer99:                                ; preds = %.loopexit.outer99.backedge, %.loopexit.outer
  %.154.ph100 = phi ptr [ %.154.ph, %.loopexit.outer ], [ %.154.ph100.be, %.loopexit.outer99.backedge ]
  %.0.ph101 = phi ptr [ %.0.ph, %.loopexit.outer ], [ %.0.ph101.be, %.loopexit.outer99.backedge ]
  br label %.loopexit

.loopexit:                                        ; preds = %.loopexit.backedge, %.loopexit.outer99
  %.154 = phi ptr [ %.154.ph100, %.loopexit.outer99 ], [ %.154.be, %.loopexit.backedge ]
  %12 = getelementptr inbounds i8, ptr %.154, i64 40
  %13 = load ptr, ptr %12, align 8
  br i1 %.not70.not, label %14, label %.thread87

14:                                               ; preds = %.loopexit
  %15 = icmp eq ptr %.154, %.0.ph101
  br i1 %15, label %.thread, label %16

16:                                               ; preds = %14
  %17 = getelementptr inbounds i8, ptr %13, i64 24
  %18 = load ptr, ptr %17, align 8
  %.not95 = icmp eq ptr %18, %.154
  %19 = tail call i32 %2(ptr noundef %0, ptr noundef nonnull %1, ptr noundef nonnull %.154, ptr noundef %3) #8
  %.not71 = icmp eq i32 %19, 0
  br i1 %.not71, label %28, label %.loopexit97

.thread:                                          ; preds = %14
  %20 = tail call i32 %2(ptr noundef %0, ptr noundef nonnull %1, ptr noundef nonnull %.154, ptr noundef %3) #8
  %.not7183 = icmp eq i32 %20, 0
  br i1 %.not7183, label %21, label %.loopexit97

21:                                               ; preds = %.thread
  %22 = load ptr, ptr %1, align 8
  %.not79 = icmp eq ptr %22, %.154
  br i1 %.not79, label %.loopexit102, label %23

23:                                               ; preds = %21
  %24 = icmp eq ptr %22, null
  br i1 %24, label %.loopexit97, label %25

25:                                               ; preds = %23
  %26 = load ptr, ptr %11, align 8
  %27 = icmp eq ptr %26, %22
  br i1 %27, label %.loopexit102, label %.loopexit.outer99.backedge

.loopexit.outer99.backedge:                       ; preds = %.preheader, %25
  %.154.ph100.be = phi ptr [ %22, %25 ], [ %.3, %.preheader ]
  %.0.ph101.be = phi ptr [ %22, %25 ], [ %.1, %.preheader ]
  br label %.loopexit.outer99

28:                                               ; preds = %16
  %29 = load ptr, ptr %17, align 8
  %.not72 = icmp eq ptr %29, %.154
  br i1 %.not72, label %.loopexit102, label %30

30:                                               ; preds = %28
  %31 = getelementptr inbounds i8, ptr %13, i64 32
  %32 = load ptr, ptr %31, align 8
  %.not73 = icmp eq ptr %32, %.154
  br i1 %.not73, label %.loopexit102, label %33

33:                                               ; preds = %30
  br i1 %.not95, label %34, label %38

34:                                               ; preds = %33
  %.not77 = icmp eq ptr %29, null
  br i1 %.not77, label %.loopexit.backedge, label %35

.loopexit.backedge:                               ; preds = %34, %35, %39
  %.154.be = phi ptr [ %32, %39 ], [ %13, %35 ], [ %13, %34 ]
  br label %.loopexit

35:                                               ; preds = %34
  %36 = getelementptr inbounds i8, ptr %29, i64 32
  %37 = load ptr, ptr %36, align 8
  %.not78 = icmp eq ptr %37, null
  br i1 %.not78, label %.loopexit.backedge, label %.loopexit102

38:                                               ; preds = %33
  %.not75 = icmp eq ptr %32, null
  br i1 %.not75, label %.loopexit102, label %39

39:                                               ; preds = %38
  %40 = load ptr, ptr %11, align 8
  %.not76 = icmp eq ptr %32, %40
  br i1 %.not76, label %.loopexit102, label %.loopexit.backedge

.loopexit102:                                     ; preds = %38, %35, %39, %30, %28, %25, %21
  %.255 = phi ptr [ %.154, %21 ], [ %22, %25 ], [ %13, %38 ], [ %29, %35 ], [ %.154, %28 ], [ %.154, %30 ], [ %32, %39 ]
  %.1 = phi ptr [ %.154, %21 ], [ %22, %25 ], [ %.0.ph101, %28 ], [ %.0.ph101, %30 ], [ %.0.ph101, %39 ], [ %.0.ph101, %35 ], [ %.0.ph101, %38 ]
  %41 = getelementptr inbounds i8, ptr %.255, i64 32
  %42 = load ptr, ptr %41, align 8
  %.not80 = icmp eq ptr %42, null
  br i1 %.not80, label %.thread87, label %.preheader

.preheader:                                       ; preds = %.loopexit102, %.preheader
  %.3 = phi ptr [ %44, %.preheader ], [ %42, %.loopexit102 ]
  %43 = getelementptr inbounds i8, ptr %.3, i64 24
  %44 = load ptr, ptr %43, align 8
  %.not81 = icmp eq ptr %44, null
  br i1 %.not81, label %.loopexit.outer99.backedge, label %.preheader

.thread87:                                        ; preds = %.loopexit102, %.loopexit
  %.194 = phi ptr [ %.0.ph101, %.loopexit ], [ %.1, %.loopexit102 ]
  %.25593 = phi ptr [ %.154, %.loopexit ], [ %.255, %.loopexit102 ]
  %45 = getelementptr inbounds i8, ptr %.194, i64 40
  %46 = load ptr, ptr %45, align 8
  %47 = icmp eq ptr %13, %46
  br i1 %47, label %.loopexit97, label %48

48:                                               ; preds = %.thread87
  %49 = getelementptr inbounds i8, ptr %13, i64 24
  %50 = load ptr, ptr %49, align 8
  %51 = icmp ne ptr %.25593, %50
  %. = zext i1 %51 to i8
  br label %.loopexit.outer

.loopexit97:                                      ; preds = %.thread, %23, %16, %.thread87, %4, %6
  %.052 = phi i32 [ 9, %6 ], [ 9, %4 ], [ %19, %16 ], [ %20, %.thread ], [ 0, %23 ], [ 0, %.thread87 ]
  ret i32 %.052
}